; ModuleID = '9/880.c'
source_filename = "9/880.c"
target datalayout = "e-m:e-p270:32:32-p271:32:32-p272:64:64-i64:64-f80:128-n8:16:32:64-S128"
target triple = "x86_64-pc-linux-gnu"

@.str = private unnamed_addr constant [3 x i8] c"%d\00", align 1
@.str.1 = private unnamed_addr constant [6 x i8] c"%s %d\00", align 1
@.str.2 = private unnamed_addr constant [4 x i8] c"%s\0A\00", align 1

; Function Attrs: noinline nounwind uwtable
define dso_local i32 @main() #0 {
  %1 = alloca i32, align 4
  %2 = alloca i32, align 4
  %3 = alloca i32, align 4
  %4 = alloca i32, align 4
  %5 = alloca [999 x [999 x i8]], align 16
  %6 = alloca [999 x i32], align 16
  %7 = alloca [999 x i32], align 16
  %8 = alloca i32, align 4
  %9 = alloca i32, align 4
  store i32 0, i32* %1, align 4
  %10 = call i32 (i8*, ...) @__isoc99_scanf(i8* getelementptr inbounds ([3 x i8], [3 x i8]* @.str, i64 0, i64 0), i32* %2)
  store i32 1, i32* %3, align 4
  br label %11

11:                                               ; preds = %24, %0
  %12 = load i32, i32* %3, align 4
  %13 = load i32, i32* %2, align 4
  %14 = icmp sle i32 %12, %13
  br i1 %14, label %15, label %27

15:                                               ; preds = %11
  %16 = load i32, i32* %3, align 4
  %17 = sext i32 %16 to i64
  %18 = getelementptr inbounds [999 x [999 x i8]], [999 x [999 x i8]]* %5, i64 0, i64 %17
  %19 = getelementptr inbounds [999 x i8], [999 x i8]* %18, i64 0, i64 0
  %20 = load i32, i32* %3, align 4
  %21 = sext i32 %20 to i64
  %22 = getelementptr inbounds [999 x i32], [999 x i32]* %6, i64 0, i64 %21
  %23 = call i32 (i8*, ...) @__isoc99_scanf(i8* getelementptr inbounds ([6 x i8], [6 x i8]* @.str.1, i64 0, i64 0), i8* %19, i32* %22)
  br label %24

24:                                               ; preds = %15
  %25 = load i32, i32* %3, align 4
  %26 = add nsw i32 %25, 1
  store i32 %26, i32* %3, align 4
  br label %11

27:                                               ; preds = %11
  store i32 0, i32* %8, align 4
  store i32 1, i32* %3, align 4
  br label %28

28:                                               ; preds = %46, %27
  %29 = load i32, i32* %3, align 4
  %30 = load i32, i32* %2, align 4
  %31 = icmp sle i32 %29, %30
  br i1 %31, label %32, label %49

32:                                               ; preds = %28
  %33 = load i32, i32* %3, align 4
  %34 = sext i32 %33 to i64
  %35 = getelementptr inbounds [999 x i32], [999 x i32]* %6, i64 0, i64 %34
  %36 = load i32, i32* %35, align 4
  %37 = icmp sge i32 %36, 60
  br i1 %37, label %38, label %45

38:                                               ; preds = %32
  %39 = load i32, i32* %8, align 4
  %40 = add nsw i32 %39, 1
  store i32 %40, i32* %8, align 4
  %41 = load i32, i32* %3, align 4
  %42 = load i32, i32* %8, align 4
  %43 = sext i32 %42 to i64
  %44 = getelementptr inbounds [999 x i32], [999 x i32]* %7, i64 0, i64 %43
  store i32 %41, i32* %44, align 4
  br label %45

45:                                               ; preds = %38, %32
  br label %46

46:                                               ; preds = %45
  %47 = load i32, i32* %3, align 4
  %48 = add nsw i32 %47, 1
  store i32 %48, i32* %3, align 4
  br label %28

49:                                               ; preds = %28
  store i32 1, i32* %3, align 4
  br label %50

50:                                               ; preds = %101, %49
  %51 = load i32, i32* %3, align 4
  %52 = load i32, i32* %8, align 4
  %53 = icmp slt i32 %51, %52
  br i1 %53, label %54, label %104

54:                                               ; preds = %50
  store i32 1, i32* %4, align 4
  br label %55

55:                                               ; preds = %97, %54
  %56 = load i32, i32* %4, align 4
  %57 = load i32, i32* %8, align 4
  %58 = load i32, i32* %3, align 4
  %59 = sub nsw i32 %57, %58
  %60 = icmp sle i32 %56, %59
  br i1 %60, label %61, label %100

61:                                               ; preds = %55
  %62 = load i32, i32* %4, align 4
  %63 = sext i32 %62 to i64
  %64 = getelementptr inbounds [999 x i32], [999 x i32]* %7, i64 0, i64 %63
  %65 = load i32, i32* %64, align 4
  %66 = sext i32 %65 to i64
  %67 = getelementptr inbounds [999 x i32], [999 x i32]* %6, i64 0, i64 %66
  %68 = load i32, i32* %67, align 4
  %69 = load i32, i32* %4, align 4
  %70 = add nsw i32 %69, 1
  %71 = sext i32 %70 to i64
  %72 = getelementptr inbounds [999 x i32], [999 x i32]* %7, i64 0, i64 %71
  %73 = load i32, i32* %72, align 4
  %74 = sext i32 %73 to i64
  %75 = getelementptr inbounds [999 x i32], [999 x i32]* %6, i64 0, i64 %74
  %76 = load i32, i32* %75, align 4
  %77 = icmp slt i32 %68, %76
  br i1 %77, label %78, label %96

78:                                               ; preds = %61
  %79 = load i32, i32* %4, align 4
  %80 = add nsw i32 %79, 1
  %81 = sext i32 %80 to i64
  %82 = getelementptr inbounds [999 x i32], [999 x i32]* %7, i64 0, i64 %81
  %83 = load i32, i32* %82, align 4
  store i32 %83, i32* %9, align 4
  %84 = load i32, i32* %4, align 4
  %85 = sext i32 %84 to i64
  %86 = getelementptr inbounds [999 x i32], [999 x i32]* %7, i64 0, i64 %85
  %87 = load i32, i32* %86, align 4
  %88 = load i32, i32* %4, align 4
  %89 = add nsw i32 %88, 1
  %90 = sext i32 %89 to i64
  %91 = getelementptr inbounds [999 x i32], [999 x i32]* %7, i64 0, i64 %90
  store i32 %87, i32* %91, align 4
  %92 = load i32, i32* %9, align 4
  %93 = load i32, i32* %4, align 4
  %94 = sext i32 %93 to i64
  %95 = getelementptr inbounds [999 x i32], [999 x i32]* %7, i64 0, i64 %94
  store i32 %92, i32* %95, align 4
  br label %96

96:                                               ; preds = %78, %61
  br label %97

97:                                               ; preds = %96
  %98 = load i32, i32* %4, align 4
  %99 = add nsw i32 %98, 1
  store i32 %99, i32* %4, align 4
  br label %55

100:                                              ; preds = %55
  br label %101

101:                                              ; preds = %100
  %102 = load i32, i32* %3, align 4
  %103 = add nsw i32 %102, 1
  store i32 %103, i32* %3, align 4
  br label %50

104:                                              ; preds = %50
  store i32 1, i32* %3, align 4
  br label %105

105:                                              ; preds = %123, %104
  %106 = load i32, i32* %3, align 4
  %107 = load i32, i32* %2, align 4
  %108 = icmp sle i32 %106, %107
  br i1 %108, label %109, label %126

109:                                              ; preds = %105
  %110 = load i32, i32* %3, align 4
  %111 = sext i32 %110 to i64
  %112 = getelementptr inbounds [999 x i32], [999 x i32]* %6, i64 0, i64 %111
  %113 = load i32, i32* %112, align 4
  %114 = icmp slt i32 %113, 60
  br i1 %114, label %115, label %122

115:                                              ; preds = %109
  %116 = load i32, i32* %8, align 4
  %117 = add nsw i32 %116, 1
  store i32 %117, i32* %8, align 4
  %118 = load i32, i32* %3, align 4
  %119 = load i32, i32* %8, align 4
  %120 = sext i32 %119 to i64
  %121 = getelementptr inbounds [999 x i32], [999 x i32]* %7, i64 0, i64 %120
  store i32 %118, i32* %121, align 4
  br label %122

122:                                              ; preds = %115, %109
  br label %123

123:                                              ; preds = %122
  %124 = load i32, i32* %3, align 4
  %125 = add nsw i32 %124, 1
  store i32 %125, i32* %3, align 4
  br label %105

126:                                              ; preds = %105
  store i32 1, i32* %3, align 4
  br label %127

127:                                              ; preds = %140, %126
  %128 = load i32, i32* %3, align 4
  %129 = load i32, i32* %8, align 4
  %130 = icmp sle i32 %128, %129
  br i1 %130, label %131, label %143

131:                                              ; preds = %127
  %132 = load i32, i32* %3, align 4
  %133 = sext i32 %132 to i64
  %134 = getelementptr inbounds [999 x i32], [999 x i32]* %7, i64 0, i64 %133
  %135 = load i32, i32* %134, align 4
  %136 = sext i32 %135 to i64
  %137 = getelementptr inbounds [999 x [999 x i8]], [999 x [999 x i8]]* %5, i64 0, i64 %136
  %138 = getelementptr inbounds [999 x i8], [999 x i8]* %137, i64 0, i64 0
  %139 = call i32 (i8*, ...) @printf(i8* getelementptr inbounds ([4 x i8], [4 x i8]* @.str.2, i64 0, i64 0), i8* %138)
  br label %140

140:                                              ; preds = %131
  %141 = load i32, i32* %3, align 4
  %142 = add nsw i32 %141, 1
  store i32 %142, i32* %3, align 4
  br label %127

143:                                              ; preds = %127
  ret i32 0
}

declare dso_local i32 @__isoc99_scanf(i8*, ...) #1

declare dso_local i32 @printf(i8*, ...) #1


!llvm.module.flags = !{!0}
!llvm.ident = !{!1}

!0 = !{i32 1, !"wchar_size", i32 4}
!1 = !{!"clang version 10.0.0-4ubuntu1 "}
